
generated/rv32ui-p-lui:     file format elf32-littleriscv


Disassembly of section .text.init:

00000000 <_start>:
   0:	00000d13          	li	s10,0
   4:	00000d93          	li	s11,0

00000008 <test_2>:
   8:	000000b7          	lui	ra,0x0
   c:	00000e93          	li	t4,0
  10:	00200193          	li	gp,2
  14:	05d09a63          	bne	ra,t4,68 <fail>

00000018 <test_3>:
  18:	fffff0b7          	lui	ra,0xfffff
  1c:	4010d093          	srai	ra,ra,0x1
  20:	80000e93          	li	t4,-2048
  24:	00300193          	li	gp,3
  28:	05d09063          	bne	ra,t4,68 <fail>

0000002c <test_4>:
  2c:	7ffff0b7          	lui	ra,0x7ffff
  30:	4140d093          	srai	ra,ra,0x14
  34:	7ff00e93          	li	t4,2047
  38:	00400193          	li	gp,4
  3c:	03d09663          	bne	ra,t4,68 <fail>

00000040 <test_5>:
  40:	800000b7          	lui	ra,0x80000
  44:	4140d093          	srai	ra,ra,0x14
  48:	80000e93          	li	t4,-2048
  4c:	00500193          	li	gp,5
  50:	01d09c63          	bne	ra,t4,68 <fail>

00000054 <test_6>:
  54:	80000037          	lui	zero,0x80000
  58:	00000e93          	li	t4,0
  5c:	00600193          	li	gp,6
  60:	01d01463          	bne	zero,t4,68 <fail>
  64:	02301063          	bne	zero,gp,84 <pass>

00000068 <fail>:
  68:	00100d13          	li	s10,1
  6c:	00000d93          	li	s11,0
  70:	10000137          	lui	sp,0x10000
  74:	01b12023          	sw	s11,0(sp) # 10000000 <begin_signature+0xfffe000>
  78:	ffffe137          	lui	sp,0xffffe
  7c:	01b12023          	sw	s11,0(sp) # ffffe000 <begin_signature+0xffffc000>

00000080 <loop_fail>:
  80:	00000063          	beqz	zero,80 <loop_fail>

00000084 <pass>:
  84:	00100d13          	li	s10,1
  88:	00100d93          	li	s11,1
  8c:	10000137          	lui	sp,0x10000
  90:	01b12023          	sw	s11,0(sp) # 10000000 <begin_signature+0xfffe000>
  94:	ffffe137          	lui	sp,0xffffe
  98:	01b12023          	sw	s11,0(sp) # ffffe000 <begin_signature+0xffffc000>

0000009c <loop_pass>:
  9c:	00000063          	beqz	zero,9c <loop_pass>
	...

Disassembly of section .tohost:

00001000 <tohost>:
	...

00001040 <fromhost>:
	...
