generated/rv32ui-p-single_v1:     file format elf32-littleriscv


Disassembly of section .text.init:

00000000 <_start>:
   0:	00002283          	lw	t0,0(zero) # 0 <_start>
   4:	00528333          	add	t1,t0,t0
   8:	0062e533          	or	a0,t0,t1
   c:	00550533          	add	a0,a0,t0
  10:	00630633          	add	a2,t1,t1
  14:	0062f5b3          	and	a1,t0,t1
  18:	00a52223          	sw	a0,4(a0)
  1c:	006585b3          	add	a1,a1,t1
  20:	40030333          	sub	t1,t1,zero
  24:	00c62683          	lw	a3,12(a2)
  28:	406686b3          	sub	a3,a3,t1
  2c:	fcb68ae3          	beq	a3,a1,0 <_start>
  30:	006585b3          	add	a1,a1,t1
  34:	406686b3          	sub	a3,a3,t1
  38:	00b68463          	beq	a3,a1,40 <test_loop1>
  3c:	00632223          	sw	t1,4(t1)

00000040 <test_loop1>:
  40:	0005f5b3          	and	a1,a1,zero
  44:	00530333          	add	t1,t1,t0
  48:	00662223          	sw	t1,4(a2)

0000004c <test_pass>:
  4c:	00000063          	beqz	zero,4c <test_pass>
  50:	02301063          	bne	zero,gp,70 <pass>

00000054 <fail>:
  54:	00100d13          	li	s10,1
  58:	00000d93          	li	s11,0
  5c:	10000137          	lui	sp,0x10000
  60:	01b12023          	sw	s11,0(sp) # 10000000 <begin_signature+0xfffe000>
  64:	ffffe137          	lui	sp,0xffffe
  68:	01b12023          	sw	s11,0(sp) # ffffe000 <begin_signature+0xffffc000>

0000006c <loop_fail>:
  6c:	00000063          	beqz	zero,6c <loop_fail>

00000070 <pass>:
  70:	00100d13          	li	s10,1
  74:	00100d93          	li	s11,1
  78:	10000137          	lui	sp,0x10000
  7c:	01b12023          	sw	s11,0(sp) # 10000000 <begin_signature+0xfffe000>
  80:	ffffe137          	lui	sp,0xffffe
  84:	01b12023          	sw	s11,0(sp) # ffffe000 <begin_signature+0xffffc000>

00000088 <loop_pass>:
  88:	00000063          	beqz	zero,88 <loop_pass>
	...

Disassembly of section .text:

000000c4 <.text>:
  c4:	00000d33          	add	s10,zero,zero
  c8:	00000db3          	add	s11,zero,zero

Disassembly of section .tohost:

00001000 <tohost>:
	...

00001040 <fromhost>:
	...
